(lp0
(lp1
(lp2
cnumpy.core.multiarray
scalar
p3
(cnumpy
dtype
p4
(S'b1'
p5
I0
I1
tp6
Rp7
(I3
S'|'
p8
NNNI-1
I-1
I0
tp9
bS'\x01'
p10
tp11
Rp12
ag3
(g7
S'\x00'
p13
tp14
Rp15
ag12
ag12
ag12
ag12
ag12
ag12
ag12
ag12
ag12
ag12
ag12
ag12
ag12
ag15
ag15
ag12
ag15
ag12
ag15
ag12
ag15
ag12
ag12
ag12
ag12
ag12
ag12
ag12
ag15
ag12
ag12
ag12
ag12
ag12
ag12
ag15
ag12
ag12
ag12
ag12
ag12
ag12
ag12
ag12
ag12
ag12
ag12
ag12
ag12
ag12
ag12
ag12
ag12
ag15
ag12
ag12
ag12
ag12
ag12
ag12
ag15
ag12
ag12
ag12
ag12
ag15
ag15
ag12
ag12
ag12
ag12
ag12
ag15
ag12
ag12
ag15
ag12
ag12
ag15
ag12
ag12
ag12
ag15
ag12
ag12
ag12
ag12
ag15
ag12
ag12
ag12
ag12
ag12
ag12
ag12
ag12
ag12
ag12
ag12
ag12
ag12
ag12
ag12
ag12
ag12
ag15
ag15
ag15
ag12
ag12
ag12
ag12
ag12
ag12
ag12
ag12
ag12
ag12
ag12
ag12
ag12
ag12
ag12
ag12
ag12
ag12
ag15
ag15
ag12
ag12
ag12
ag12
ag12
ag12
ag12
ag15
ag12
ag12
ag12
ag15
ag15
ag15
ag12
ag12
ag12
ag12
ag12
ag12
ag12
ag12
ag12
ag12
ag12
ag12
ag12
ag15
ag15
ag12
ag12
ag12
ag12
ag12
ag12
ag12
ag12
ag12
ag12
ag12
ag12
ag12
ag15
ag12
ag12
ag12
ag15
ag12
ag15
ag12
ag12
ag12
ag12
ag15
ag12
ag15
ag12
ag12
ag12
ag12
ag12
ag12
ag15
ag12
ag12
ag12
ag12
ag12
ag15
ag12
ag12
ag12
ag12
ag12
ag12
ag15
ag12
ag12
ag12
ag15
ag12
ag12
ag15
ag15
ag12
ag12
ag12
ag12
ag12
ag12
ag12
ag15
ag12
ag12
ag12
ag15
ag15
ag15
ag12
ag12
ag12
ag15
ag12
ag12
ag12
ag12
ag12
ag12
ag12
ag12
ag15
ag12
ag12
ag12
ag12
ag12
ag12
ag12
ag15
ag12
ag12
ag12
ag12
ag12
ag12
ag12
ag12
ag15
ag15
ag12
ag12
ag12
ag12
ag12
ag12
ag12
ag12
ag15
ag12
ag12
ag12
ag12
ag12
ag15
ag12
ag12
ag12
ag12
ag12
ag12
ag15
ag12
ag12
ag12
ag12
ag12
ag12
ag12
ag15
ag12
ag12
ag12
ag12
ag12
ag15
ag12
ag12
ag12
ag12
ag12
ag15
ag12
ag12
ag12
ag12
ag12
ag12
ag12
ag12
ag12
ag12
ag12
ag12
ag12
ag15
ag12
ag12
ag12
ag15
ag12
ag12
ag15
ag12
ag12
ag12
ag12
ag12
ag12
ag12
ag12
ag12
ag12
ag12
ag12
ag15
ag12
ag12
ag12
ag12
ag12
ag15
ag12
ag12
ag12
ag12
ag15
ag12
ag12
ag12
ag12
ag12
ag12
ag12
ag12
ag12
ag12
ag12
ag12
ag12
ag12
ag12
ag12
ag12
ag12
ag12
ag12
ag12
ag12
ag12
ag12
ag12
ag12
ag12
ag12
ag12
ag12
ag15
ag15
ag12
ag12
ag12
ag12
ag12
ag12
ag12
ag12
ag12
ag15
ag15
ag12
ag12
ag15
ag12
ag12
ag12
ag12
ag12
ag15
ag12
ag15
ag12
ag12
ag15
ag12
ag12
ag12
ag12
ag12
ag12
ag12
ag12
ag15
ag15
ag12
ag15
ag12
ag12
ag12
ag12
ag12
ag12
ag12
ag12
ag12
ag12
ag12
ag12
ag12
ag12
ag12
ag15
ag12
ag15
ag12
ag12
ag12
ag15
ag12
ag12
ag15
ag15
ag15
ag12
ag12
ag15
ag12
ag12
ag12
ag15
ag12
ag12
ag12
ag12
ag15
ag12
ag15
ag12
ag15
ag12
ag12
ag12
ag12
ag12
ag12
ag12
ag15
ag12
ag15
ag12
ag12
ag15
ag15
ag15
ag15
ag12
ag15
ag12
ag12
ag12
ag12
ag12
ag12
ag12
ag12
ag15
ag12
ag12
ag12
ag12
ag12
ag15
ag12
ag15
ag12
ag12
ag12
ag12
ag12
ag12
ag12
ag12
ag12
ag15
ag12
ag12
ag12
ag12
ag12
ag15
ag12
ag12
ag15
ag12
ag12
ag12
ag12
ag12
ag12
ag12
ag12
ag12
ag15
ag12
ag12
ag12
ag12
ag12
ag12
ag12
ag15
ag12
ag12
ag15
ag15
ag12
ag12
ag15
ag15
ag12
ag12
ag15
ag12
ag12
ag12
ag12
ag12
ag15
ag12
ag12
ag12
ag12
ag12
ag15
ag12
ag12
ag12
ag12
ag12
ag15
ag12
ag12
ag12
ag12
ag15
ag12
ag12
ag15
ag12
ag12
ag12
ag12
ag12
ag12
ag12
ag12
ag15
ag12
ag12
ag15
ag15
ag12
ag15
ag12
ag12
ag12
ag12
ag15
ag12
ag12
ag12
ag12
ag15
ag12
ag12
ag12
ag12
ag12
ag12
ag12
ag12
ag15
ag12
ag12
ag12
ag12
ag12
ag15
ag12
ag12
ag12
ag12
ag12
ag12
ag12
ag15
ag12
ag15
ag12
ag12
ag12
ag12
ag12
ag12
ag12
ag15
ag12
ag12
ag12
ag12
ag12
ag12
ag12
ag12
ag12
ag12
ag12
ag12
ag12
ag15
ag12
ag15
ag12
ag12
ag15
ag12
ag12
ag15
ag15
ag12
ag12
ag12
ag12
ag12
ag12
ag12
ag12
ag15
ag15
ag12
ag12
ag12
ag15
ag15
ag12
ag12
ag12
ag15
ag12
ag15
ag12
ag15
ag12
ag12
ag15
ag12
ag15
ag12
ag12
ag15
ag12
ag15
ag12
ag12
ag12
ag12
ag12
ag12
ag15
ag12
ag15
ag12
ag15
ag15
ag12
ag12
ag12
ag12
ag12
ag15
ag12
ag12
ag12
ag12
ag15
ag12
ag12
ag15
ag12
ag12
ag15
ag12
ag15
ag12
ag15
ag12
ag12
ag15
ag12
ag12
ag12
ag12
ag15
ag12
ag12
ag12
ag12
ag12
ag12
ag12
ag12
ag12
ag12
ag12
ag15
ag12
aa(lp16
g15
ag12
ag15
ag15
ag15
ag15
ag15
ag15
ag15
ag15
ag15
ag15
ag15
ag15
ag15
ag12
ag12
ag15
ag12
ag15
ag12
ag15
ag12
ag15
ag15
ag15
ag15
ag15
ag15
ag15
ag12
ag15
ag15
ag15
ag15
ag15
ag15
ag12
ag15
ag15
ag15
ag15
ag15
ag15
ag15
ag15
ag15
ag15
ag15
ag15
ag15
ag15
ag15
ag15
ag15
ag12
ag15
ag15
ag15
ag15
ag15
ag15
ag12
ag15
ag15
ag15
ag15
ag12
ag12
ag15
ag15
ag15
ag15
ag15
ag12
ag15
ag15
ag12
ag15
ag15
ag12
ag15
ag15
ag15
ag12
ag15
ag15
ag15
ag15
ag12
ag15
ag15
ag15
ag15
ag15
ag15
ag15
ag15
ag15
ag15
ag15
ag15
ag15
ag15
ag15
ag15
ag15
ag12
ag12
ag12
ag15
ag15
ag15
ag15
ag15
ag15
ag15
ag15
ag15
ag15
ag15
ag15
ag15
ag15
ag15
ag15
ag15
ag15
ag12
ag12
ag15
ag15
ag15
ag15
ag15
ag15
ag15
ag12
ag15
ag15
ag15
ag12
ag12
ag12
ag15
ag15
ag15
ag15
ag15
ag15
ag15
ag15
ag15
ag15
ag15
ag15
ag15
ag12
ag12
ag15
ag15
ag15
ag15
ag15
ag15
ag15
ag15
ag15
ag15
ag15
ag15
ag15
ag12
ag15
ag15
ag15
ag12
ag15
ag12
ag15
ag15
ag15
ag15
ag12
ag15
ag12
ag15
ag15
ag15
ag15
ag15
ag15
ag12
ag15
ag15
ag15
ag15
ag15
ag12
ag15
ag15
ag15
ag15
ag15
ag15
ag12
ag15
ag15
ag15
ag12
ag15
ag15
ag12
ag12
ag15
ag15
ag15
ag15
ag15
ag15
ag15
ag12
ag15
ag15
ag15
ag12
ag12
ag12
ag15
ag15
ag15
ag12
ag15
ag15
ag15
ag15
ag15
ag15
ag15
ag15
ag12
ag15
ag15
ag15
ag15
ag15
ag15
ag15
ag12
ag15
ag15
ag15
ag15
ag15
ag15
ag15
ag15
ag12
ag12
ag15
ag15
ag15
ag15
ag15
ag15
ag15
ag15
ag12
ag15
ag15
ag15
ag15
ag15
ag12
ag15
ag15
ag15
ag15
ag15
ag15
ag12
ag15
ag15
ag15
ag15
ag15
ag15
ag15
ag12
ag15
ag15
ag15
ag15
ag15
ag12
ag15
ag15
ag15
ag15
ag15
ag12
ag15
ag15
ag15
ag15
ag15
ag15
ag15
ag15
ag15
ag15
ag15
ag15
ag15
ag12
ag15
ag15
ag15
ag12
ag15
ag15
ag12
ag15
ag15
ag15
ag15
ag15
ag15
ag15
ag15
ag15
ag15
ag15
ag15
ag12
ag15
ag15
ag15
ag15
ag15
ag12
ag15
ag15
ag15
ag15
ag12
ag15
ag15
ag15
ag15
ag15
ag15
ag15
ag15
ag15
ag15
ag15
ag15
ag15
ag15
ag15
ag15
ag15
ag15
ag15
ag15
ag15
ag15
ag15
ag15
ag15
ag15
ag15
ag15
ag15
ag15
ag12
ag12
ag15
ag15
ag15
ag15
ag15
ag15
ag15
ag15
ag15
ag12
ag12
ag15
ag15
ag12
ag15
ag15
ag15
ag15
ag15
ag12
ag15
ag12
ag15
ag15
ag12
ag15
ag15
ag15
ag15
ag15
ag15
ag15
ag15
ag12
ag12
ag15
ag12
ag15
ag15
ag15
ag15
ag15
ag15
ag15
ag15
ag15
ag15
ag15
ag15
ag15
ag15
ag15
ag12
ag15
ag12
ag15
ag15
ag15
ag12
ag15
ag15
ag12
ag12
ag12
ag15
ag15
ag12
ag15
ag15
ag15
ag12
ag15
ag15
ag15
ag15
ag12
ag15
ag12
ag15
ag12
ag15
ag15
ag15
ag15
ag15
ag15
ag15
ag12
ag15
ag12
ag15
ag15
ag12
ag12
ag12
ag12
ag15
ag12
ag15
ag15
ag15
ag15
ag15
ag15
ag15
ag15
ag12
ag15
ag15
ag15
ag15
ag15
ag12
ag15
ag12
ag15
ag15
ag15
ag15
ag15
ag15
ag15
ag15
ag15
ag12
ag15
ag15
ag15
ag15
ag15
ag12
ag15
ag15
ag12
ag15
ag15
ag15
ag15
ag15
ag15
ag15
ag15
ag15
ag12
ag15
ag15
ag15
ag15
ag15
ag15
ag15
ag12
ag15
ag15
ag12
ag12
ag15
ag15
ag12
ag12
ag15
ag15
ag12
ag15
ag15
ag15
ag15
ag15
ag12
ag15
ag15
ag15
ag15
ag15
ag12
ag15
ag15
ag15
ag15
ag15
ag12
ag15
ag15
ag15
ag15
ag12
ag15
ag15
ag12
ag15
ag15
ag15
ag15
ag15
ag15
ag15
ag15
ag12
ag15
ag15
ag12
ag12
ag15
ag12
ag15
ag15
ag15
ag15
ag12
ag15
ag15
ag15
ag15
ag12
ag15
ag15
ag15
ag15
ag15
ag15
ag15
ag15
ag12
ag15
ag15
ag15
ag15
ag15
ag12
ag15
ag15
ag15
ag15
ag15
ag15
ag15
ag12
ag15
ag12
ag15
ag15
ag15
ag15
ag15
ag15
ag15
ag12
ag15
ag15
ag15
ag15
ag15
ag15
ag15
ag15
ag15
ag15
ag15
ag15
ag15
ag12
ag15
ag12
ag15
ag15
ag12
ag15
ag15
ag12
ag12
ag15
ag15
ag15
ag15
ag15
ag15
ag15
ag15
ag12
ag12
ag15
ag15
ag15
ag12
ag12
ag15
ag15
ag15
ag12
ag15
ag12
ag15
ag12
ag15
ag15
ag12
ag15
ag12
ag15
ag15
ag12
ag15
ag12
ag15
ag15
ag15
ag15
ag15
ag15
ag12
ag15
ag12
ag15
ag12
ag12
ag15
ag15
ag15
ag15
ag15
ag12
ag15
ag15
ag15
ag15
ag12
ag15
ag15
ag12
ag15
ag15
ag12
ag15
ag12
ag15
ag12
ag15
ag15
ag12
ag15
ag15
ag15
ag15
ag12
ag15
ag15
ag15
ag15
ag15
ag15
ag15
ag15
ag15
ag15
ag15
ag12
ag15
aaa(lp17
(lp18
g12
ag12
ag12
ag15
ag12
ag12
ag12
ag15
ag12
ag12
ag15
ag12
ag15
ag15
ag12
ag12
ag12
ag12
ag12
ag12
ag12
ag12
ag12
ag12
ag15
ag12
ag12
ag12
ag15
ag12
ag12
ag12
ag15
ag12
ag12
ag12
ag12
ag12
ag15
ag12
ag15
ag12
ag12
ag12
ag12
ag12
ag12
ag12
ag12
ag12
ag12
ag12
ag15
ag15
ag12
ag12
ag12
ag12
ag15
ag12
ag15
ag12
ag12
ag12
ag12
ag15
ag15
ag12
ag12
ag12
ag12
ag12
ag15
ag12
ag12
ag12
ag12
ag12
ag12
ag12
ag12
ag12
ag12
ag12
ag12
ag12
ag12
ag12
ag12
ag12
ag12
ag12
ag12
ag12
ag12
ag12
ag12
ag12
ag12
ag12
ag12
ag15
ag12
ag15
ag12
ag12
ag12
ag12
ag12
ag12
ag15
ag12
ag15
ag15
ag12
ag12
ag15
ag15
ag12
ag12
ag15
ag12
ag12
ag15
ag12
ag12
ag12
ag12
ag12
ag12
ag15
ag15
ag12
ag12
ag15
ag12
ag15
ag12
ag12
ag15
ag12
ag12
ag12
ag12
ag12
ag12
ag15
ag12
ag12
ag12
ag12
ag12
ag15
ag12
ag12
ag15
ag15
ag12
ag12
ag15
ag15
ag15
ag12
ag12
ag15
ag15
ag12
ag15
ag12
ag12
ag12
ag15
ag12
ag12
ag12
ag12
ag12
ag12
ag12
ag12
ag15
ag12
ag15
ag12
ag12
ag12
ag12
ag12
ag12
ag12
ag12
ag12
ag12
ag15
ag15
ag12
ag12
ag15
ag12
ag15
ag12
ag12
ag12
ag15
ag15
ag12
ag15
ag12
ag12
ag12
ag12
ag12
ag12
ag12
ag12
ag12
ag12
ag12
ag12
ag12
ag12
ag12
ag12
ag15
ag12
ag12
ag12
ag12
ag12
ag12
ag12
ag12
ag15
ag12
ag12
ag15
ag15
ag12
ag12
ag15
ag12
ag15
ag12
ag12
ag15
ag12
ag15
ag12
ag12
ag15
ag15
ag15
ag12
ag12
ag12
ag12
ag12
ag12
ag12
ag12
ag12
ag12
ag15
ag12
ag12
ag15
ag12
ag12
ag12
ag12
ag12
ag12
ag15
ag12
ag12
ag15
ag15
ag12
ag12
ag12
ag12
ag15
ag12
ag12
ag15
ag12
ag12
ag12
ag12
ag15
ag12
ag12
ag12
ag12
ag12
ag15
ag12
ag15
ag12
ag12
ag12
ag12
ag12
ag12
ag15
ag12
ag12
ag12
ag12
ag15
ag12
ag15
ag15
ag12
ag12
ag15
ag12
ag12
ag12
ag12
ag12
ag12
ag15
ag12
ag12
ag12
ag12
ag15
ag15
ag12
ag15
ag12
ag12
ag15
ag12
ag15
ag12
ag12
ag15
ag12
ag12
ag12
ag15
ag12
ag12
ag12
ag12
ag15
ag12
ag12
ag12
ag12
ag12
ag12
ag12
ag12
ag12
ag12
ag12
ag12
ag12
ag12
ag12
ag12
ag12
ag12
ag12
ag12
ag12
ag15
ag12
ag15
ag12
ag12
ag12
ag15
ag12
ag12
ag12
ag15
ag12
ag15
ag12
ag12
ag12
ag12
ag15
ag12
ag12
ag12
ag12
ag12
ag12
ag15
ag12
ag12
ag12
ag12
ag12
ag12
ag12
ag12
ag12
ag12
ag12
ag12
ag12
ag12
ag12
ag15
ag12
ag12
ag12
ag12
ag12
ag12
ag15
ag12
ag12
ag12
ag12
ag12
ag12
ag12
ag12
ag12
ag15
ag12
ag12
ag15
ag12
ag12
ag12
ag12
ag12
ag15
ag12
ag12
ag12
ag12
ag12
ag12
ag12
ag15
ag12
ag12
ag12
ag15
ag12
ag12
ag12
ag12
ag12
ag12
ag12
ag12
ag12
ag12
ag12
ag12
ag12
ag12
ag12
ag15
ag15
ag12
ag12
ag12
ag15
ag12
ag12
ag12
ag12
ag12
ag12
ag12
ag12
ag12
ag12
ag12
ag12
ag12
ag12
ag12
ag12
ag12
ag12
ag12
ag15
ag12
ag12
ag12
ag12
ag12
ag15
ag12
ag15
ag12
ag12
ag15
ag12
ag15
ag12
ag12
ag12
ag12
ag12
ag12
ag12
ag12
ag15
ag12
ag15
ag15
ag12
ag15
ag12
ag12
ag15
ag15
ag15
ag12
ag12
ag12
ag15
ag15
ag12
ag12
ag12
ag12
ag15
ag12
ag12
ag12
ag12
ag15
ag12
ag12
ag12
ag12
ag12
ag12
ag12
ag12
ag15
ag12
ag12
ag15
ag12
ag15
ag12
ag15
ag12
ag12
ag15
ag12
ag15
ag12
ag12
ag12
ag12
ag12
ag12
ag12
ag12
ag12
ag12
ag12
ag12
ag12
ag12
ag15
ag12
ag12
ag12
ag12
ag12
ag15
ag12
ag12
ag12
ag12
ag12
ag12
ag12
ag12
ag12
ag12
ag12
ag12
ag12
ag12
ag12
ag12
ag12
ag15
ag12
ag12
ag12
ag12
ag12
ag12
ag12
ag15
ag12
ag12
ag12
ag12
ag12
ag12
ag12
ag15
ag15
ag12
ag12
ag15
ag12
ag12
ag15
ag12
ag12
ag15
ag12
ag12
ag12
ag12
ag12
ag12
ag12
ag12
ag12
ag12
ag12
ag15
ag12
ag12
ag12
ag12
ag12
ag15
ag12
ag12
ag12
ag12
ag12
ag15
ag12
ag12
ag12
ag12
ag12
ag12
ag15
ag12
ag12
ag12
ag12
ag12
ag12
ag12
ag15
ag12
ag12
ag12
ag12
ag12
ag12
ag12
ag12
ag12
ag12
ag12
ag12
ag12
ag12
ag12
ag12
ag12
ag12
ag12
ag12
ag15
ag12
ag12
ag12
ag12
ag12
ag12
ag12
ag12
ag12
ag12
ag12
ag15
ag12
ag12
ag15
ag15
ag12
ag15
ag12
ag15
ag12
ag12
ag12
ag15
ag12
ag12
ag12
ag12
ag12
ag12
ag12
ag12
ag12
ag12
ag12
ag12
ag12
ag12
ag12
ag12
ag12
ag12
ag12
ag15
ag12
ag12
ag12
ag12
ag12
ag12
ag12
ag12
ag12
aa(lp19
g15
ag15
ag15
ag12
ag15
ag15
ag15
ag12
ag15
ag15
ag12
ag15
ag12
ag12
ag15
ag15
ag15
ag15
ag15
ag15
ag15
ag15
ag15
ag15
ag12
ag15
ag15
ag15
ag12
ag15
ag15
ag15
ag12
ag15
ag15
ag15
ag15
ag15
ag12
ag15
ag12
ag15
ag15
ag15
ag15
ag15
ag15
ag15
ag15
ag15
ag15
ag15
ag12
ag12
ag15
ag15
ag15
ag15
ag12
ag15
ag12
ag15
ag15
ag15
ag15
ag12
ag12
ag15
ag15
ag15
ag15
ag15
ag12
ag15
ag15
ag15
ag15
ag15
ag15
ag15
ag15
ag15
ag15
ag15
ag15
ag15
ag15
ag15
ag15
ag15
ag15
ag15
ag15
ag15
ag15
ag15
ag15
ag15
ag15
ag15
ag15
ag12
ag15
ag12
ag15
ag15
ag15
ag15
ag15
ag15
ag12
ag15
ag12
ag12
ag15
ag15
ag12
ag12
ag15
ag15
ag12
ag15
ag15
ag12
ag15
ag15
ag15
ag15
ag15
ag15
ag12
ag12
ag15
ag15
ag12
ag15
ag12
ag15
ag15
ag12
ag15
ag15
ag15
ag15
ag15
ag15
ag12
ag15
ag15
ag15
ag15
ag15
ag12
ag15
ag15
ag12
ag12
ag15
ag15
ag12
ag12
ag12
ag15
ag15
ag12
ag12
ag15
ag12
ag15
ag15
ag15
ag12
ag15
ag15
ag15
ag15
ag15
ag15
ag15
ag15
ag12
ag15
ag12
ag15
ag15
ag15
ag15
ag15
ag15
ag15
ag15
ag15
ag15
ag12
ag12
ag15
ag15
ag12
ag15
ag12
ag15
ag15
ag15
ag12
ag12
ag15
ag12
ag15
ag15
ag15
ag15
ag15
ag15
ag15
ag15
ag15
ag15
ag15
ag15
ag15
ag15
ag15
ag15
ag12
ag15
ag15
ag15
ag15
ag15
ag15
ag15
ag15
ag12
ag15
ag15
ag12
ag12
ag15
ag15
ag12
ag15
ag12
ag15
ag15
ag12
ag15
ag12
ag15
ag15
ag12
ag12
ag12
ag15
ag15
ag15
ag15
ag15
ag15
ag15
ag15
ag15
ag15
ag12
ag15
ag15
ag12
ag15
ag15
ag15
ag15
ag15
ag15
ag12
ag15
ag15
ag12
ag12
ag15
ag15
ag15
ag15
ag12
ag15
ag15
ag12
ag15
ag15
ag15
ag15
ag12
ag15
ag15
ag15
ag15
ag15
ag12
ag15
ag12
ag15
ag15
ag15
ag15
ag15
ag15
ag12
ag15
ag15
ag15
ag15
ag12
ag15
ag12
ag12
ag15
ag15
ag12
ag15
ag15
ag15
ag15
ag15
ag15
ag12
ag15
ag15
ag15
ag15
ag12
ag12
ag15
ag12
ag15
ag15
ag12
ag15
ag12
ag15
ag15
ag12
ag15
ag15
ag15
ag12
ag15
ag15
ag15
ag15
ag12
ag15
ag15
ag15
ag15
ag15
ag15
ag15
ag15
ag15
ag15
ag15
ag15
ag15
ag15
ag15
ag15
ag15
ag15
ag15
ag15
ag15
ag12
ag15
ag12
ag15
ag15
ag15
ag12
ag15
ag15
ag15
ag12
ag15
ag12
ag15
ag15
ag15
ag15
ag12
ag15
ag15
ag15
ag15
ag15
ag15
ag12
ag15
ag15
ag15
ag15
ag15
ag15
ag15
ag15
ag15
ag15
ag15
ag15
ag15
ag15
ag15
ag12
ag15
ag15
ag15
ag15
ag15
ag15
ag12
ag15
ag15
ag15
ag15
ag15
ag15
ag15
ag15
ag15
ag12
ag15
ag15
ag12
ag15
ag15
ag15
ag15
ag15
ag12
ag15
ag15
ag15
ag15
ag15
ag15
ag15
ag12
ag15
ag15
ag15
ag12
ag15
ag15
ag15
ag15
ag15
ag15
ag15
ag15
ag15
ag15
ag15
ag15
ag15
ag15
ag15
ag12
ag12
ag15
ag15
ag15
ag12
ag15
ag15
ag15
ag15
ag15
ag15
ag15
ag15
ag15
ag15
ag15
ag15
ag15
ag15
ag15
ag15
ag15
ag15
ag15
ag12
ag15
ag15
ag15
ag15
ag15
ag12
ag15
ag12
ag15
ag15
ag12
ag15
ag12
ag15
ag15
ag15
ag15
ag15
ag15
ag15
ag15
ag12
ag15
ag12
ag12
ag15
ag12
ag15
ag15
ag12
ag12
ag12
ag15
ag15
ag15
ag12
ag12
ag15
ag15
ag15
ag15
ag12
ag15
ag15
ag15
ag15
ag12
ag15
ag15
ag15
ag15
ag15
ag15
ag15
ag15
ag12
ag15
ag15
ag12
ag15
ag12
ag15
ag12
ag15
ag15
ag12
ag15
ag12
ag15
ag15
ag15
ag15
ag15
ag15
ag15
ag15
ag15
ag15
ag15
ag15
ag15
ag15
ag12
ag15
ag15
ag15
ag15
ag15
ag12
ag15
ag15
ag15
ag15
ag15
ag15
ag15
ag15
ag15
ag15
ag15
ag15
ag15
ag15
ag15
ag15
ag15
ag12
ag15
ag15
ag15
ag15
ag15
ag15
ag15
ag12
ag15
ag15
ag15
ag15
ag15
ag15
ag15
ag12
ag12
ag15
ag15
ag12
ag15
ag15
ag12
ag15
ag15
ag12
ag15
ag15
ag15
ag15
ag15
ag15
ag15
ag15
ag15
ag15
ag15
ag12
ag15
ag15
ag15
ag15
ag15
ag12
ag15
ag15
ag15
ag15
ag15
ag12
ag15
ag15
ag15
ag15
ag15
ag15
ag12
ag15
ag15
ag15
ag15
ag15
ag15
ag15
ag12
ag15
ag15
ag15
ag15
ag15
ag15
ag15
ag15
ag15
ag15
ag15
ag15
ag15
ag15
ag15
ag15
ag15
ag15
ag15
ag15
ag12
ag15
ag15
ag15
ag15
ag15
ag15
ag15
ag15
ag15
ag15
ag15
ag12
ag15
ag15
ag12
ag12
ag15
ag12
ag15
ag12
ag15
ag15
ag15
ag12
ag15
ag15
ag15
ag15
ag15
ag15
ag15
ag15
ag15
ag15
ag15
ag15
ag15
ag15
ag15
ag15
ag15
ag15
ag15
ag12
ag15
ag15
ag15
ag15
ag15
ag15
ag15
ag15
ag15
aaa(lp20
(lp21
g12
ag12
ag15
ag12
ag15
ag15
ag12
ag12
ag12
ag12
ag12
ag12
ag12
ag12
ag15
ag12
ag12
ag15
ag12
ag12
ag12
ag12
ag12
ag15
ag12
ag15
ag12
ag15
ag12
ag15
ag12
ag12
ag12
ag12
ag12
ag12
ag12
ag12
ag12
ag12
ag12
ag15
ag15
ag12
ag12
ag12
ag12
ag12
ag15
ag12
ag12
ag12
ag12
ag12
ag15
ag12
ag12
ag12
ag12
ag12
ag12
ag12
ag12
ag12
ag12
ag12
ag12
ag12
ag12
ag15
ag15
ag15
ag12
ag15
ag12
ag12
ag15
ag12
ag15
ag12
ag12
ag12
ag12
ag12
ag12
ag12
ag12
ag12
ag12
ag12
ag15
ag15
ag12
ag15
ag15
ag12
ag12
ag12
ag12
ag12
ag15
ag12
ag12
ag12
ag12
ag12
ag15
ag12
ag12
ag12
ag12
ag15
ag12
ag12
ag15
ag12
ag12
ag12
ag12
ag15
ag12
ag12
ag12
ag12
ag12
ag12
ag15
ag12
ag12
ag12
ag12
ag12
ag12
ag12
ag12
ag12
ag12
ag12
ag12
ag12
ag12
ag12
ag12
ag12
ag12
ag15
ag12
ag15
ag12
ag12
ag15
ag15
ag12
ag12
ag15
ag12
ag12
ag12
ag12
ag12
ag12
ag12
ag12
ag15
ag12
ag12
ag15
ag12
ag12
ag15
ag15
ag12
ag12
ag15
ag12
ag15
ag12
ag15
ag12
ag15
ag12
ag12
ag12
ag12
ag12
ag12
ag12
ag12
ag15
ag12
ag12
ag15
ag12
ag12
ag12
ag12
ag15
ag12
ag12
ag12
ag15
ag12
ag15
ag12
ag12
ag12
ag12
ag12
ag12
ag12
ag12
ag12
ag12
ag12
ag15
ag15
ag15
ag12
ag12
ag12
ag12
ag12
ag15
ag12
ag12
ag12
ag12
ag12
ag15
ag12
ag15
ag12
ag12
ag12
ag15
ag12
ag12
ag12
ag12
ag12
ag12
ag12
ag15
ag12
ag12
ag12
ag12
ag15
ag12
ag12
ag12
ag12
ag12
ag12
ag15
ag12
ag15
ag12
ag12
ag15
ag12
ag12
ag12
ag12
ag12
ag12
ag15
ag12
ag15
ag12
ag12
ag12
ag12
ag12
ag12
ag12
ag12
ag15
ag12
ag12
ag12
ag12
ag12
ag12
ag12
ag15
ag15
ag12
ag12
ag12
ag12
ag12
ag15
ag15
ag12
ag12
ag12
ag12
ag12
ag12
ag12
ag12
ag12
ag12
ag12
ag12
ag12
ag15
ag15
ag12
ag12
ag12
ag12
ag12
ag12
ag12
ag12
ag15
ag12
ag12
ag15
ag12
ag12
ag12
ag12
ag12
ag12
ag12
ag12
ag15
ag12
ag15
ag12
ag12
ag12
ag12
ag12
ag12
ag12
ag12
ag12
ag12
ag12
ag15
ag15
ag12
ag15
ag12
ag12
ag12
ag15
ag12
ag15
ag12
ag15
ag12
ag15
ag12
ag12
ag12
ag12
ag12
ag12
ag15
ag12
ag15
ag12
ag12
ag12
ag12
ag15
ag12
ag15
ag15
ag12
ag12
ag12
ag12
ag12
ag12
ag12
ag12
ag12
ag15
ag12
ag12
ag12
ag12
ag12
ag15
ag12
ag12
ag12
ag12
ag12
ag15
ag12
ag12
ag15
ag12
ag15
ag12
ag12
ag12
ag12
ag12
ag12
ag12
ag12
ag12
ag12
ag12
ag12
ag12
ag12
ag12
ag12
ag15
ag15
ag15
ag12
ag12
ag12
ag15
ag12
ag12
ag12
ag15
ag12
ag12
ag12
ag15
ag12
ag12
ag12
ag12
ag12
ag15
ag12
ag12
ag12
ag12
ag12
ag12
ag12
ag12
ag12
ag12
ag12
ag15
ag12
ag15
ag15
ag12
ag12
ag12
ag15
ag12
ag15
ag15
ag12
ag12
ag12
ag12
ag12
ag12
ag12
ag12
ag12
ag12
ag12
ag12
ag12
ag12
ag12
ag12
ag15
ag12
ag12
ag15
ag12
ag15
ag12
ag12
ag12
ag12
ag15
ag12
ag12
ag12
ag12
ag12
ag12
ag12
ag12
ag15
ag12
ag12
ag12
ag12
ag12
ag12
ag12
ag15
ag12
ag12
ag12
ag12
ag12
ag12
ag12
ag12
ag12
ag12
ag15
ag12
ag12
ag12
ag12
ag12
ag12
ag12
ag15
ag15
ag12
ag12
ag15
ag12
ag12
ag12
ag12
ag15
ag12
ag12
ag12
ag12
ag12
ag12
ag12
ag12
ag12
ag15
ag12
ag15
ag12
ag12
ag12
ag12
ag12
ag12
ag12
ag12
ag12
ag12
ag12
ag12
ag12
ag15
ag12
ag15
ag12
ag12
ag12
ag12
ag12
ag12
ag12
ag12
ag15
ag12
ag12
ag12
ag15
ag12
ag12
ag12
ag12
ag12
ag12
ag12
ag15
ag12
ag12
ag12
ag12
ag12
ag12
ag12
ag12
ag12
ag12
ag12
ag12
ag12
ag15
ag12
ag15
ag15
ag12
ag15
ag12
ag15
ag12
ag12
ag12
ag12
ag12
ag12
ag15
ag12
ag15
ag12
ag12
ag15
ag12
ag12
ag12
ag12
ag12
ag12
ag12
ag12
ag12
ag12
ag12
ag12
ag15
ag15
ag12
ag12
ag12
ag12
ag12
ag12
ag12
ag12
ag15
ag12
ag12
ag12
ag12
ag15
ag15
ag12
ag12
ag12
ag12
ag12
ag12
ag12
ag15
ag15
ag12
ag15
ag12
ag12
ag12
ag12
ag12
ag15
ag12
ag12
ag12
ag12
ag12
ag12
ag12
ag12
ag12
ag15
ag12
ag12
ag12
ag12
ag12
ag12
ag12
ag12
ag12
ag12
ag12
ag12
ag12
ag12
ag15
ag12
ag12
ag12
ag15
ag12
ag12
ag12
ag12
ag12
ag15
ag15
ag12
ag12
ag12
ag12
ag12
ag12
ag12
ag12
ag12
ag12
ag12
ag15
ag12
ag12
ag15
ag12
ag12
ag12
ag12
ag12
ag12
ag15
ag12
ag12
ag15
ag12
ag12
ag12
ag12
ag12
ag12
ag12
ag12
ag12
ag12
ag12
ag12
ag12
ag15
aa(lp22
g15
ag15
ag12
ag15
ag12
ag12
ag15
ag15
ag15
ag15
ag15
ag15
ag15
ag15
ag12
ag15
ag15
ag12
ag15
ag15
ag15
ag15
ag15
ag12
ag15
ag12
ag15
ag12
ag15
ag12
ag15
ag15
ag15
ag15
ag15
ag15
ag15
ag15
ag15
ag15
ag15
ag12
ag12
ag15
ag15
ag15
ag15
ag15
ag12
ag15
ag15
ag15
ag15
ag15
ag12
ag15
ag15
ag15
ag15
ag15
ag15
ag15
ag15
ag15
ag15
ag15
ag15
ag15
ag15
ag12
ag12
ag12
ag15
ag12
ag15
ag15
ag12
ag15
ag12
ag15
ag15
ag15
ag15
ag15
ag15
ag15
ag15
ag15
ag15
ag15
ag12
ag12
ag15
ag12
ag12
ag15
ag15
ag15
ag15
ag15
ag12
ag15
ag15
ag15
ag15
ag15
ag12
ag15
ag15
ag15
ag15
ag12
ag15
ag15
ag12
ag15
ag15
ag15
ag15
ag12
ag15
ag15
ag15
ag15
ag15
ag15
ag12
ag15
ag15
ag15
ag15
ag15
ag15
ag15
ag15
ag15
ag15
ag15
ag15
ag15
ag15
ag15
ag15
ag15
ag15
ag12
ag15
ag12
ag15
ag15
ag12
ag12
ag15
ag15
ag12
ag15
ag15
ag15
ag15
ag15
ag15
ag15
ag15
ag12
ag15
ag15
ag12
ag15
ag15
ag12
ag12
ag15
ag15
ag12
ag15
ag12
ag15
ag12
ag15
ag12
ag15
ag15
ag15
ag15
ag15
ag15
ag15
ag15
ag12
ag15
ag15
ag12
ag15
ag15
ag15
ag15
ag12
ag15
ag15
ag15
ag12
ag15
ag12
ag15
ag15
ag15
ag15
ag15
ag15
ag15
ag15
ag15
ag15
ag15
ag12
ag12
ag12
ag15
ag15
ag15
ag15
ag15
ag12
ag15
ag15
ag15
ag15
ag15
ag12
ag15
ag12
ag15
ag15
ag15
ag12
ag15
ag15
ag15
ag15
ag15
ag15
ag15
ag12
ag15
ag15
ag15
ag15
ag12
ag15
ag15
ag15
ag15
ag15
ag15
ag12
ag15
ag12
ag15
ag15
ag12
ag15
ag15
ag15
ag15
ag15
ag15
ag12
ag15
ag12
ag15
ag15
ag15
ag15
ag15
ag15
ag15
ag15
ag12
ag15
ag15
ag15
ag15
ag15
ag15
ag15
ag12
ag12
ag15
ag15
ag15
ag15
ag15
ag12
ag12
ag15
ag15
ag15
ag15
ag15
ag15
ag15
ag15
ag15
ag15
ag15
ag15
ag15
ag12
ag12
ag15
ag15
ag15
ag15
ag15
ag15
ag15
ag15
ag12
ag15
ag15
ag12
ag15
ag15
ag15
ag15
ag15
ag15
ag15
ag15
ag12
ag15
ag12
ag15
ag15
ag15
ag15
ag15
ag15
ag15
ag15
ag15
ag15
ag15
ag12
ag12
ag15
ag12
ag15
ag15
ag15
ag12
ag15
ag12
ag15
ag12
ag15
ag12
ag15
ag15
ag15
ag15
ag15
ag15
ag12
ag15
ag12
ag15
ag15
ag15
ag15
ag12
ag15
ag12
ag12
ag15
ag15
ag15
ag15
ag15
ag15
ag15
ag15
ag15
ag12
ag15
ag15
ag15
ag15
ag15
ag12
ag15
ag15
ag15
ag15
ag15
ag12
ag15
ag15
ag12
ag15
ag12
ag15
ag15
ag15
ag15
ag15
ag15
ag15
ag15
ag15
ag15
ag15
ag15
ag15
ag15
ag15
ag15
ag12
ag12
ag12
ag15
ag15
ag15
ag12
ag15
ag15
ag15
ag12
ag15
ag15
ag15
ag12
ag15
ag15
ag15
ag15
ag15
ag12
ag15
ag15
ag15
ag15
ag15
ag15
ag15
ag15
ag15
ag15
ag15
ag12
ag15
ag12
ag12
ag15
ag15
ag15
ag12
ag15
ag12
ag12
ag15
ag15
ag15
ag15
ag15
ag15
ag15
ag15
ag15
ag15
ag15
ag15
ag15
ag15
ag15
ag15
ag12
ag15
ag15
ag12
ag15
ag12
ag15
ag15
ag15
ag15
ag12
ag15
ag15
ag15
ag15
ag15
ag15
ag15
ag15
ag12
ag15
ag15
ag15
ag15
ag15
ag15
ag15
ag12
ag15
ag15
ag15
ag15
ag15
ag15
ag15
ag15
ag15
ag15
ag12
ag15
ag15
ag15
ag15
ag15
ag15
ag15
ag12
ag12
ag15
ag15
ag12
ag15
ag15
ag15
ag15
ag12
ag15
ag15
ag15
ag15
ag15
ag15
ag15
ag15
ag15
ag12
ag15
ag12
ag15
ag15
ag15
ag15
ag15
ag15
ag15
ag15
ag15
ag15
ag15
ag15
ag15
ag12
ag15
ag12
ag15
ag15
ag15
ag15
ag15
ag15
ag15
ag15
ag12
ag15
ag15
ag15
ag12
ag15
ag15
ag15
ag15
ag15
ag15
ag15
ag12
ag15
ag15
ag15
ag15
ag15
ag15
ag15
ag15
ag15
ag15
ag15
ag15
ag15
ag12
ag15
ag12
ag12
ag15
ag12
ag15
ag12
ag15
ag15
ag15
ag15
ag15
ag15
ag12
ag15
ag12
ag15
ag15
ag12
ag15
ag15
ag15
ag15
ag15
ag15
ag15
ag15
ag15
ag15
ag15
ag15
ag12
ag12
ag15
ag15
ag15
ag15
ag15
ag15
ag15
ag15
ag12
ag15
ag15
ag15
ag15
ag12
ag12
ag15
ag15
ag15
ag15
ag15
ag15
ag15
ag12
ag12
ag15
ag12
ag15
ag15
ag15
ag15
ag15
ag12
ag15
ag15
ag15
ag15
ag15
ag15
ag15
ag15
ag15
ag12
ag15
ag15
ag15
ag15
ag15
ag15
ag15
ag15
ag15
ag15
ag15
ag15
ag15
ag15
ag12
ag15
ag15
ag15
ag12
ag15
ag15
ag15
ag15
ag15
ag12
ag12
ag15
ag15
ag15
ag15
ag15
ag15
ag15
ag15
ag15
ag15
ag15
ag12
ag15
ag15
ag12
ag15
ag15
ag15
ag15
ag15
ag15
ag12
ag15
ag15
ag12
ag15
ag15
ag15
ag15
ag15
ag15
ag15
ag15
ag15
ag15
ag15
ag15
ag15
ag12
aaa(lp23
(lp24
g12
ag12
ag12
ag12
ag12
ag12
ag15
ag12
ag12
ag15
ag12
ag15
ag12
ag12
ag12
ag12
ag12
ag12
ag12
ag12
ag12
ag12
ag12
ag12
ag12
ag12
ag12
ag12
ag12
ag12
ag12
ag12
ag12
ag15
ag12
ag15
ag15
ag12
ag12
ag15
ag12
ag12
ag12
ag12
ag15
ag15
ag12
ag12
ag12
ag12
ag12
ag12
ag12
ag12
ag12
ag12
ag12
ag15
ag12
ag12
ag12
ag12
ag12
ag12
ag15
ag12
ag12
ag12
ag12
ag12
ag12
ag12
ag12
ag12
ag12
ag12
ag12
ag12
ag12
ag15
ag12
ag12
ag15
ag12
ag12
ag15
ag12
ag15
ag12
ag12
ag12
ag12
ag15
ag12
ag12
ag15
ag12
ag12
ag15
ag15
ag12
ag12
ag12
ag12
ag15
ag15
ag12
ag12
ag12
ag12
ag12
ag12
ag12
ag12
ag12
ag15
ag12
ag12
ag15
ag12
ag12
ag12
ag12
ag12
ag12
ag12
ag12
ag15
ag12
ag12
ag12
ag12
ag12
ag15
ag12
ag12
ag12
ag12
ag12
ag12
ag15
ag12
ag12
ag12
ag15
ag12
ag12
ag12
ag12
ag15
ag12
ag12
ag12
ag15
ag12
ag12
ag12
ag12
ag12
ag12
ag12
ag12
ag15
ag12
ag12
ag12
ag12
ag12
ag12
ag12
ag12
ag12
ag12
ag12
ag15
ag12
ag12
ag12
ag12
ag12
ag12
ag15
ag12
ag12
ag15
ag12
ag15
ag12
ag12
ag15
ag15
ag12
ag12
ag12
ag12
ag12
ag12
ag12
ag12
ag12
ag12
ag12
ag12
ag12
ag12
ag12
ag12
ag12
ag15
ag12
ag15
ag12
ag12
ag12
ag12
ag12
ag12
ag15
ag12
ag12
ag15
ag12
ag12
ag12
ag12
ag12
ag12
ag12
ag12
ag15
ag12
ag12
ag12
ag15
ag12
ag12
ag12
ag15
ag12
ag12
ag12
ag12
ag12
ag15
ag12
ag12
ag12
ag12
ag12
ag12
ag12
ag12
ag15
ag15
ag12
ag12
ag12
ag12
ag12
ag12
ag15
ag15
ag12
ag12
ag15
ag12
ag12
ag12
ag12
ag15
ag15
ag12
ag12
ag12
ag15
ag12
ag12
ag12
ag15
ag15
ag12
ag12
ag15
ag15
ag12
ag12
ag12
ag12
ag12
ag12
ag12
ag15
ag12
ag12
ag12
ag12
ag12
ag12
ag15
ag12
ag12
ag15
ag12
ag15
ag12
ag15
ag15
ag12
ag12
ag12
ag15
ag12
ag12
ag12
ag12
ag12
ag12
ag12
ag12
ag12
ag12
ag12
ag12
ag12
ag12
ag12
ag12
ag12
ag12
ag12
ag12
ag12
ag15
ag12
ag12
ag12
ag12
ag15
ag12
ag15
ag12
ag15
ag12
ag12
ag12
ag12
ag12
ag12
ag12
ag15
ag12
ag12
ag12
ag15
ag12
ag15
ag12
ag15
ag15
ag12
ag12
ag12
ag15
ag12
ag12
ag12
ag12
ag12
ag15
ag12
ag12
ag12
ag12
ag12
ag15
ag12
ag12
ag12
ag15
ag12
ag15
ag12
ag15
ag12
ag15
ag12
ag12
ag12
ag12
ag12
ag15
ag12
ag12
ag12
ag15
ag12
ag15
ag12
ag12
ag12
ag12
ag12
ag12
ag15
ag12
ag12
ag12
ag15
ag15
ag12
ag15
ag12
ag12
ag15
ag12
ag12
ag12
ag12
ag12
ag12
ag15
ag12
ag15
ag12
ag12
ag15
ag12
ag12
ag15
ag12
ag12
ag12
ag12
ag12
ag12
ag12
ag12
ag12
ag15
ag12
ag12
ag12
ag12
ag12
ag12
ag15
ag12
ag12
ag12
ag12
ag12
ag12
ag12
ag12
ag12
ag12
ag12
ag12
ag12
ag12
ag15
ag12
ag15
ag12
ag12
ag12
ag12
ag12
ag12
ag15
ag12
ag12
ag12
ag12
ag12
ag12
ag12
ag12
ag12
ag12
ag15
ag12
ag12
ag12
ag12
ag12
ag12
ag12
ag12
ag15
ag12
ag12
ag12
ag12
ag12
ag12
ag12
ag15
ag12
ag12
ag15
ag12
ag12
ag12
ag15
ag15
ag12
ag15
ag12
ag12
ag12
ag12
ag12
ag12
ag12
ag12
ag15
ag15
ag12
ag12
ag12
ag12
ag12
ag12
ag12
ag12
ag12
ag12
ag12
ag12
ag12
ag12
ag12
ag12
ag12
ag12
ag12
ag12
ag12
ag12
ag12
ag12
ag15
ag12
ag12
ag12
ag12
ag12
ag15
ag12
ag12
ag12
ag12
ag15
ag12
ag12
ag12
ag12
ag12
ag12
ag15
ag12
ag12
ag12
ag12
ag15
ag12
ag15
ag12
ag15
ag12
ag12
ag12
ag15
ag12
ag12
ag15
ag12
ag12
ag12
ag12
ag12
ag15
ag15
ag12
ag12
ag12
ag12
ag12
ag15
ag12
ag12
ag12
ag15
ag12
ag12
ag12
ag12
ag15
ag12
ag12
ag12
ag15
ag12
ag12
ag12
ag12
ag12
ag12
ag12
ag12
ag12
ag12
ag12
ag12
ag12
ag12
ag15
ag12
ag15
ag15
ag12
ag12
ag12
ag12
ag15
ag12
ag12
ag12
ag12
ag15
ag15
ag15
ag12
ag15
ag12
ag12
ag15
ag12
ag12
ag12
ag12
ag12
ag12
ag12
ag12
ag12
ag12
ag12
ag12
ag12
ag12
ag12
ag12
ag15
ag15
ag12
ag12
ag15
ag12
ag12
ag12
ag12
ag15
ag12
ag12
ag12
ag15
ag12
ag12
ag12
ag15
ag15
ag12
ag12
ag12
ag15
ag12
ag12
ag12
ag12
ag12
ag15
ag15
ag12
ag12
ag12
ag12
ag12
ag12
ag12
ag12
ag12
ag12
ag12
ag12
ag12
ag12
ag12
ag12
ag12
ag12
ag12
ag12
ag12
ag12
ag12
ag12
ag12
ag12
ag12
ag12
ag12
ag12
ag15
ag15
ag12
ag12
ag15
ag15
ag12
ag12
ag12
ag12
ag15
ag12
ag15
ag12
ag12
ag12
ag15
ag15
ag12
ag12
ag12
aa(lp25
g15
ag15
ag15
ag15
ag15
ag15
ag12
ag15
ag15
ag12
ag15
ag12
ag15
ag15
ag15
ag15
ag15
ag15
ag15
ag15
ag15
ag15
ag15
ag15
ag15
ag15
ag15
ag15
ag15
ag15
ag15
ag15
ag15
ag12
ag15
ag12
ag12
ag15
ag15
ag12
ag15
ag15
ag15
ag15
ag12
ag12
ag15
ag15
ag15
ag15
ag15
ag15
ag15
ag15
ag15
ag15
ag15
ag12
ag15
ag15
ag15
ag15
ag15
ag15
ag12
ag15
ag15
ag15
ag15
ag15
ag15
ag15
ag15
ag15
ag15
ag15
ag15
ag15
ag15
ag12
ag15
ag15
ag12
ag15
ag15
ag12
ag15
ag12
ag15
ag15
ag15
ag15
ag12
ag15
ag15
ag12
ag15
ag15
ag12
ag12
ag15
ag15
ag15
ag15
ag12
ag12
ag15
ag15
ag15
ag15
ag15
ag15
ag15
ag15
ag15
ag12
ag15
ag15
ag12
ag15
ag15
ag15
ag15
ag15
ag15
ag15
ag15
ag12
ag15
ag15
ag15
ag15
ag15
ag12
ag15
ag15
ag15
ag15
ag15
ag15
ag12
ag15
ag15
ag15
ag12
ag15
ag15
ag15
ag15
ag12
ag15
ag15
ag15
ag12
ag15
ag15
ag15
ag15
ag15
ag15
ag15
ag15
ag12
ag15
ag15
ag15
ag15
ag15
ag15
ag15
ag15
ag15
ag15
ag15
ag12
ag15
ag15
ag15
ag15
ag15
ag15
ag12
ag15
ag15
ag12
ag15
ag12
ag15
ag15
ag12
ag12
ag15
ag15
ag15
ag15
ag15
ag15
ag15
ag15
ag15
ag15
ag15
ag15
ag15
ag15
ag15
ag15
ag15
ag12
ag15
ag12
ag15
ag15
ag15
ag15
ag15
ag15
ag12
ag15
ag15
ag12
ag15
ag15
ag15
ag15
ag15
ag15
ag15
ag15
ag12
ag15
ag15
ag15
ag12
ag15
ag15
ag15
ag12
ag15
ag15
ag15
ag15
ag15
ag12
ag15
ag15
ag15
ag15
ag15
ag15
ag15
ag15
ag12
ag12
ag15
ag15
ag15
ag15
ag15
ag15
ag12
ag12
ag15
ag15
ag12
ag15
ag15
ag15
ag15
ag12
ag12
ag15
ag15
ag15
ag12
ag15
ag15
ag15
ag12
ag12
ag15
ag15
ag12
ag12
ag15
ag15
ag15
ag15
ag15
ag15
ag15
ag12
ag15
ag15
ag15
ag15
ag15
ag15
ag12
ag15
ag15
ag12
ag15
ag12
ag15
ag12
ag12
ag15
ag15
ag15
ag12
ag15
ag15
ag15
ag15
ag15
ag15
ag15
ag15
ag15
ag15
ag15
ag15
ag15
ag15
ag15
ag15
ag15
ag15
ag15
ag15
ag15
ag12
ag15
ag15
ag15
ag15
ag12
ag15
ag12
ag15
ag12
ag15
ag15
ag15
ag15
ag15
ag15
ag15
ag12
ag15
ag15
ag15
ag12
ag15
ag12
ag15
ag12
ag12
ag15
ag15
ag15
ag12
ag15
ag15
ag15
ag15
ag15
ag12
ag15
ag15
ag15
ag15
ag15
ag12
ag15
ag15
ag15
ag12
ag15
ag12
ag15
ag12
ag15
ag12
ag15
ag15
ag15
ag15
ag15
ag12
ag15
ag15
ag15
ag12
ag15
ag12
ag15
ag15
ag15
ag15
ag15
ag15
ag12
ag15
ag15
ag15
ag12
ag12
ag15
ag12
ag15
ag15
ag12
ag15
ag15
ag15
ag15
ag15
ag15
ag12
ag15
ag12
ag15
ag15
ag12
ag15
ag15
ag12
ag15
ag15
ag15
ag15
ag15
ag15
ag15
ag15
ag15
ag12
ag15
ag15
ag15
ag15
ag15
ag15
ag12
ag15
ag15
ag15
ag15
ag15
ag15
ag15
ag15
ag15
ag15
ag15
ag15
ag15
ag15
ag12
ag15
ag12
ag15
ag15
ag15
ag15
ag15
ag15
ag12
ag15
ag15
ag15
ag15
ag15
ag15
ag15
ag15
ag15
ag15
ag12
ag15
ag15
ag15
ag15
ag15
ag15
ag15
ag15
ag12
ag15
ag15
ag15
ag15
ag15
ag15
ag15
ag12
ag15
ag15
ag12
ag15
ag15
ag15
ag12
ag12
ag15
ag12
ag15
ag15
ag15
ag15
ag15
ag15
ag15
ag15
ag12
ag12
ag15
ag15
ag15
ag15
ag15
ag15
ag15
ag15
ag15
ag15
ag15
ag15
ag15
ag15
ag15
ag15
ag15
ag15
ag15
ag15
ag15
ag15
ag15
ag15
ag12
ag15
ag15
ag15
ag15
ag15
ag12
ag15
ag15
ag15
ag15
ag12
ag15
ag15
ag15
ag15
ag15
ag15
ag12
ag15
ag15
ag15
ag15
ag12
ag15
ag12
ag15
ag12
ag15
ag15
ag15
ag12
ag15
ag15
ag12
ag15
ag15
ag15
ag15
ag15
ag12
ag12
ag15
ag15
ag15
ag15
ag15
ag12
ag15
ag15
ag15
ag12
ag15
ag15
ag15
ag15
ag12
ag15
ag15
ag15
ag12
ag15
ag15
ag15
ag15
ag15
ag15
ag15
ag15
ag15
ag15
ag15
ag15
ag15
ag15
ag12
ag15
ag12
ag12
ag15
ag15
ag15
ag15
ag12
ag15
ag15
ag15
ag15
ag12
ag12
ag12
ag15
ag12
ag15
ag15
ag12
ag15
ag15
ag15
ag15
ag15
ag15
ag15
ag15
ag15
ag15
ag15
ag15
ag15
ag15
ag15
ag15
ag12
ag12
ag15
ag15
ag12
ag15
ag15
ag15
ag15
ag12
ag15
ag15
ag15
ag12
ag15
ag15
ag15
ag12
ag12
ag15
ag15
ag15
ag12
ag15
ag15
ag15
ag15
ag15
ag12
ag12
ag15
ag15
ag15
ag15
ag15
ag15
ag15
ag15
ag15
ag15
ag15
ag15
ag15
ag15
ag15
ag15
ag15
ag15
ag15
ag15
ag15
ag15
ag15
ag15
ag15
ag15
ag15
ag15
ag15
ag15
ag12
ag12
ag15
ag15
ag12
ag12
ag15
ag15
ag15
ag15
ag12
ag15
ag12
ag15
ag15
ag15
ag12
ag12
ag15
ag15
ag15
aaa(lp26
(lp27
g15
ag12
ag12
ag12
ag12
ag12
ag12
ag12
ag15
ag12
ag12
ag12
ag12
ag12
ag12
ag12
ag12
ag12
ag12
ag15
ag12
ag15
ag12
ag12
ag12
ag12
ag15
ag12
ag12
ag12
ag12
ag15
ag12
ag12
ag15
ag12
ag12
ag12
ag12
ag12
ag12
ag12
ag12
ag15
ag12
ag12
ag15
ag15
ag12
ag15
ag15
ag15
ag12
ag12
ag12
ag12
ag15
ag12
ag12
ag15
ag12
ag15
ag12
ag15
ag12
ag12
ag12
ag12
ag12
ag12
ag12
ag12
ag12
ag12
ag12
ag15
ag12
ag12
ag12
ag12
ag12
ag15
ag12
ag15
ag12
ag12
ag15
ag12
ag15
ag12
ag12
ag12
ag12
ag12
ag12
ag12
ag15
ag15
ag12
ag12
ag12
ag12
ag15
ag12
ag12
ag12
ag12
ag12
ag12
ag12
ag12
ag12
ag12
ag12
ag12
ag12
ag12
ag12
ag12
ag12
ag12
ag15
ag15
ag12
ag15
ag15
ag12
ag12
ag12
ag12
ag12
ag12
ag15
ag12
ag12
ag15
ag12
ag12
ag15
ag12
ag12
ag12
ag12
ag12
ag12
ag12
ag12
ag12
ag15
ag12
ag12
ag12
ag12
ag12
ag12
ag12
ag12
ag12
ag12
ag12
ag12
ag12
ag12
ag12
ag12
ag12
ag12
ag12
ag15
ag12
ag12
ag12
ag12
ag12
ag12
ag12
ag12
ag12
ag12
ag12
ag12
ag12
ag12
ag12
ag12
ag12
ag12
ag15
ag12
ag12
ag12
ag12
ag12
ag12
ag12
ag15
ag12
ag12
ag12
ag12
ag12
ag15
ag12
ag12
ag12
ag12
ag12
ag15
ag12
ag12
ag12
ag15
ag12
ag12
ag12
ag12
ag12
ag12
ag15
ag15
ag12
ag12
ag12
ag12
ag15
ag12
ag12
ag12
ag12
ag12
ag12
ag12
ag12
ag12
ag12
ag12
ag12
ag12
ag15
ag12
ag12
ag12
ag12
ag12
ag12
ag15
ag12
ag12
ag12
ag12
ag12
ag12
ag12
ag12
ag12
ag15
ag12
ag12
ag12
ag12
ag12
ag12
ag12
ag15
ag12
ag12
ag12
ag12
ag12
ag12
ag12
ag15
ag12
ag12
ag12
ag12
ag12
ag12
ag12
ag12
ag12
ag12
ag12
ag12
ag12
ag12
ag12
ag15
ag12
ag12
ag15
ag12
ag12
ag12
ag12
ag12
ag15
ag12
ag12
ag15
ag12
ag12
ag15
ag12
ag12
ag12
ag12
ag12
ag12
ag12
ag12
ag12
ag12
ag15
ag12
ag12
ag15
ag12
ag12
ag15
ag12
ag12
ag12
ag15
ag15
ag15
ag15
ag12
ag12
ag12
ag12
ag12
ag12
ag12
ag12
ag12
ag15
ag12
ag12
ag12
ag12
ag12
ag12
ag12
ag12
ag12
ag12
ag12
ag15
ag12
ag12
ag15
ag12
ag12
ag12
ag12
ag12
ag12
ag12
ag15
ag15
ag15
ag12
ag12
ag15
ag12
ag15
ag15
ag12
ag12
ag12
ag12
ag12
ag12
ag12
ag12
ag12
ag12
ag12
ag12
ag12
ag12
ag12
ag12
ag12
ag15
ag12
ag12
ag12
ag12
ag12
ag12
ag15
ag12
ag12
ag12
ag12
ag12
ag12
ag12
ag12
ag15
ag12
ag12
ag15
ag15
ag15
ag12
ag12
ag12
ag12
ag12
ag12
ag12
ag12
ag15
ag12
ag12
ag12
ag12
ag12
ag15
ag12
ag12
ag15
ag12
ag12
ag12
ag12
ag12
ag12
ag12
ag12
ag15
ag15
ag12
ag12
ag12
ag12
ag12
ag12
ag12
ag15
ag12
ag12
ag12
ag15
ag12
ag12
ag12
ag15
ag12
ag12
ag12
ag15
ag12
ag12
ag12
ag12
ag12
ag12
ag15
ag12
ag12
ag12
ag12
ag15
ag12
ag12
ag12
ag12
ag12
ag12
ag12
ag15
ag12
ag12
ag15
ag15
ag12
ag12
ag12
ag15
ag15
ag12
ag15
ag12
ag15
ag12
ag12
ag12
ag15
ag12
ag15
ag12
ag12
ag12
ag12
ag15
ag12
ag12
ag12
ag12
ag12
ag12
ag12
ag15
ag12
ag12
ag15
ag12
ag12
ag12
ag12
ag12
ag12
ag12
ag12
ag12
ag12
ag12
ag12
ag12
ag12
ag12
ag12
ag12
ag15
ag15
ag12
ag12
ag12
ag12
ag12
ag15
ag12
ag12
ag12
ag15
ag15
ag12
ag12
ag12
ag12
ag12
ag15
ag12
ag12
ag12
ag12
ag15
ag12
ag12
ag12
ag12
ag15
ag12
ag12
ag12
ag12
ag12
ag15
ag15
ag12
ag15
ag12
ag12
ag12
ag12
ag12
ag15
ag12
ag12
ag12
ag15
ag12
ag12
ag12
ag12
ag12
ag12
ag12
ag12
ag12
ag15
ag15
ag12
ag15
ag15
ag12
ag15
ag12
ag15
ag12
ag12
ag12
ag12
ag12
ag12
ag12
ag12
ag12
ag12
ag12
ag15
ag15
ag12
ag15
ag12
ag15
ag12
ag12
ag12
ag12
ag12
ag12
ag12
ag12
ag12
ag12
ag12
ag12
ag15
ag15
ag12
ag12
ag12
ag12
ag15
ag15
ag12
ag12
ag12
ag12
ag12
ag15
ag12
ag12
ag12
ag12
ag12
ag12
ag12
ag12
ag15
ag12
ag12
ag12
ag15
ag15
ag12
ag12
ag12
ag12
ag12
ag12
ag12
ag12
ag12
ag12
ag12
ag12
ag12
ag12
ag15
ag15
ag12
ag12
ag12
ag12
ag12
ag12
ag12
ag12
ag15
ag12
ag12
ag15
ag12
ag15
ag12
ag12
ag12
ag12
ag12
ag15
ag15
ag12
ag12
ag12
ag15
ag12
ag12
ag12
ag12
ag12
ag12
ag12
ag12
ag12
ag15
ag12
ag15
ag12
ag15
ag12
ag12
ag12
ag15
ag12
ag12
ag12
ag15
ag12
ag12
ag12
ag12
ag12
ag12
ag12
ag12
ag12
ag15
ag15
ag12
ag12
ag12
ag15
ag15
ag15
ag12
ag12
ag15
ag12
ag12
aa(lp28
g12
ag15
ag15
ag15
ag15
ag15
ag15
ag15
ag12
ag15
ag15
ag15
ag15
ag15
ag15
ag15
ag15
ag15
ag15
ag12
ag15
ag12
ag15
ag15
ag15
ag15
ag12
ag15
ag15
ag15
ag15
ag12
ag15
ag15
ag12
ag15
ag15
ag15
ag15
ag15
ag15
ag15
ag15
ag12
ag15
ag15
ag12
ag12
ag15
ag12
ag12
ag12
ag15
ag15
ag15
ag15
ag12
ag15
ag15
ag12
ag15
ag12
ag15
ag12
ag15
ag15
ag15
ag15
ag15
ag15
ag15
ag15
ag15
ag15
ag15
ag12
ag15
ag15
ag15
ag15
ag15
ag12
ag15
ag12
ag15
ag15
ag12
ag15
ag12
ag15
ag15
ag15
ag15
ag15
ag15
ag15
ag12
ag12
ag15
ag15
ag15
ag15
ag12
ag15
ag15
ag15
ag15
ag15
ag15
ag15
ag15
ag15
ag15
ag15
ag15
ag15
ag15
ag15
ag15
ag15
ag15
ag12
ag12
ag15
ag12
ag12
ag15
ag15
ag15
ag15
ag15
ag15
ag12
ag15
ag15
ag12
ag15
ag15
ag12
ag15
ag15
ag15
ag15
ag15
ag15
ag15
ag15
ag15
ag12
ag15
ag15
ag15
ag15
ag15
ag15
ag15
ag15
ag15
ag15
ag15
ag15
ag15
ag15
ag15
ag15
ag15
ag15
ag15
ag12
ag15
ag15
ag15
ag15
ag15
ag15
ag15
ag15
ag15
ag15
ag15
ag15
ag15
ag15
ag15
ag15
ag15
ag15
ag12
ag15
ag15
ag15
ag15
ag15
ag15
ag15
ag12
ag15
ag15
ag15
ag15
ag15
ag12
ag15
ag15
ag15
ag15
ag15
ag12
ag15
ag15
ag15
ag12
ag15
ag15
ag15
ag15
ag15
ag15
ag12
ag12
ag15
ag15
ag15
ag15
ag12
ag15
ag15
ag15
ag15
ag15
ag15
ag15
ag15
ag15
ag15
ag15
ag15
ag15
ag12
ag15
ag15
ag15
ag15
ag15
ag15
ag12
ag15
ag15
ag15
ag15
ag15
ag15
ag15
ag15
ag15
ag12
ag15
ag15
ag15
ag15
ag15
ag15
ag15
ag12
ag15
ag15
ag15
ag15
ag15
ag15
ag15
ag12
ag15
ag15
ag15
ag15
ag15
ag15
ag15
ag15
ag15
ag15
ag15
ag15
ag15
ag15
ag15
ag12
ag15
ag15
ag12
ag15
ag15
ag15
ag15
ag15
ag12
ag15
ag15
ag12
ag15
ag15
ag12
ag15
ag15
ag15
ag15
ag15
ag15
ag15
ag15
ag15
ag15
ag12
ag15
ag15
ag12
ag15
ag15
ag12
ag15
ag15
ag15
ag12
ag12
ag12
ag12
ag15
ag15
ag15
ag15
ag15
ag15
ag15
ag15
ag15
ag12
ag15
ag15
ag15
ag15
ag15
ag15
ag15
ag15
ag15
ag15
ag15
ag12
ag15
ag15
ag12
ag15
ag15
ag15
ag15
ag15
ag15
ag15
ag12
ag12
ag12
ag15
ag15
ag12
ag15
ag12
ag12
ag15
ag15
ag15
ag15
ag15
ag15
ag15
ag15
ag15
ag15
ag15
ag15
ag15
ag15
ag15
ag15
ag15
ag12
ag15
ag15
ag15
ag15
ag15
ag15
ag12
ag15
ag15
ag15
ag15
ag15
ag15
ag15
ag15
ag12
ag15
ag15
ag12
ag12
ag12
ag15
ag15
ag15
ag15
ag15
ag15
ag15
ag15
ag12
ag15
ag15
ag15
ag15
ag15
ag12
ag15
ag15
ag12
ag15
ag15
ag15
ag15
ag15
ag15
ag15
ag15
ag12
ag12
ag15
ag15
ag15
ag15
ag15
ag15
ag15
ag12
ag15
ag15
ag15
ag12
ag15
ag15
ag15
ag12
ag15
ag15
ag15
ag12
ag15
ag15
ag15
ag15
ag15
ag15
ag12
ag15
ag15
ag15
ag15
ag12
ag15
ag15
ag15
ag15
ag15
ag15
ag15
ag12
ag15
ag15
ag12
ag12
ag15
ag15
ag15
ag12
ag12
ag15
ag12
ag15
ag12
ag15
ag15
ag15
ag12
ag15
ag12
ag15
ag15
ag15
ag15
ag12
ag15
ag15
ag15
ag15
ag15
ag15
ag15
ag12
ag15
ag15
ag12
ag15
ag15
ag15
ag15
ag15
ag15
ag15
ag15
ag15
ag15
ag15
ag15
ag15
ag15
ag15
ag15
ag15
ag12
ag12
ag15
ag15
ag15
ag15
ag15
ag12
ag15
ag15
ag15
ag12
ag12
ag15
ag15
ag15
ag15
ag15
ag12
ag15
ag15
ag15
ag15
ag12
ag15
ag15
ag15
ag15
ag12
ag15
ag15
ag15
ag15
ag15
ag12
ag12
ag15
ag12
ag15
ag15
ag15
ag15
ag15
ag12
ag15
ag15
ag15
ag12
ag15
ag15
ag15
ag15
ag15
ag15
ag15
ag15
ag15
ag12
ag12
ag15
ag12
ag12
ag15
ag12
ag15
ag12
ag15
ag15
ag15
ag15
ag15
ag15
ag15
ag15
ag15
ag15
ag15
ag12
ag12
ag15
ag12
ag15
ag12
ag15
ag15
ag15
ag15
ag15
ag15
ag15
ag15
ag15
ag15
ag15
ag15
ag12
ag12
ag15
ag15
ag15
ag15
ag12
ag12
ag15
ag15
ag15
ag15
ag15
ag12
ag15
ag15
ag15
ag15
ag15
ag15
ag15
ag15
ag12
ag15
ag15
ag15
ag12
ag12
ag15
ag15
ag15
ag15
ag15
ag15
ag15
ag15
ag15
ag15
ag15
ag15
ag15
ag15
ag12
ag12
ag15
ag15
ag15
ag15
ag15
ag15
ag15
ag15
ag12
ag15
ag15
ag12
ag15
ag12
ag15
ag15
ag15
ag15
ag15
ag12
ag12
ag15
ag15
ag15
ag12
ag15
ag15
ag15
ag15
ag15
ag15
ag15
ag15
ag15
ag12
ag15
ag12
ag15
ag12
ag15
ag15
ag15
ag12
ag15
ag15
ag15
ag12
ag15
ag15
ag15
ag15
ag15
ag15
ag15
ag15
ag15
ag12
ag12
ag15
ag15
ag15
ag12
ag12
ag12
ag15
ag15
ag12
ag15
ag15
aaa.